; ModuleID = '61/198.c'
source_filename = "61/198.c"
target datalayout = "e-m:e-p270:32:32-p271:32:32-p272:64:64-i64:64-f80:128-n8:16:32:64-S128"
target triple = "x86_64-pc-linux-gnu"

@.str = private unnamed_addr constant [3 x i8] c"%d\00", align 1
@.str.1 = private unnamed_addr constant [4 x i8] c"%d\0A\00", align 1

; Function Attrs: noinline nounwind uwtable
define dso_local i32 @main() #0 {
  %1 = alloca i32, align 4
  %2 = alloca i32, align 4
  %3 = alloca i32, align 4
  %4 = alloca i32, align 4
  %5 = alloca i32, align 4
  %6 = alloca i32, align 4
  %7 = alloca i8*, align 8
  %8 = alloca i64, align 8
  %9 = alloca i64, align 8
  store i32 0, i32* %1, align 4
  %10 = call i32 (i8*, ...) @__isoc99_scanf(i8* getelementptr inbounds ([3 x i8], [3 x i8]* @.str, i64 0, i64 0), i32* %2)
  %11 = load i32, i32* %2, align 4
  %12 = zext i32 %11 to i64
  %13 = call i8* @llvm.stacksave()
  store i8* %13, i8** %7, align 8
  %14 = alloca i32, i64 %12, align 16
  store i64 %12, i64* %8, align 8
  store i32 0, i32* %3, align 4
  br label %15

15:                                               ; preds = %24, %0
  %16 = load i32, i32* %3, align 4
  %17 = load i32, i32* %2, align 4
  %18 = icmp slt i32 %16, %17
  br i1 %18, label %19, label %27

19:                                               ; preds = %15
  %20 = load i32, i32* %3, align 4
  %21 = sext i32 %20 to i64
  %22 = getelementptr inbounds i32, i32* %14, i64 %21
  %23 = call i32 (i8*, ...) @__isoc99_scanf(i8* getelementptr inbounds ([3 x i8], [3 x i8]* @.str, i64 0, i64 0), i32* %22)
  br label %24

24:                                               ; preds = %19
  %25 = load i32, i32* %3, align 4
  %26 = add nsw i32 %25, 1
  store i32 %26, i32* %3, align 4
  br label %15

27:                                               ; preds = %15
  %28 = getelementptr inbounds i32, i32* %14, i64 0
  %29 = load i32, i32* %28, align 16
  store i32 %29, i32* %5, align 4
  store i32 0, i32* %3, align 4
  br label %30

30:                                               ; preds = %47, %27
  %31 = load i32, i32* %3, align 4
  %32 = load i32, i32* %2, align 4
  %33 = icmp slt i32 %31, %32
  br i1 %33, label %34, label %50

34:                                               ; preds = %30
  %35 = load i32, i32* %3, align 4
  %36 = sext i32 %35 to i64
  %37 = getelementptr inbounds i32, i32* %14, i64 %36
  %38 = load i32, i32* %37, align 4
  %39 = load i32, i32* %5, align 4
  %40 = icmp sgt i32 %38, %39
  br i1 %40, label %41, label %46

41:                                               ; preds = %34
  %42 = load i32, i32* %3, align 4
  %43 = sext i32 %42 to i64
  %44 = getelementptr inbounds i32, i32* %14, i64 %43
  %45 = load i32, i32* %44, align 4
  store i32 %45, i32* %5, align 4
  br label %46

46:                                               ; preds = %41, %34
  br label %47

47:                                               ; preds = %46
  %48 = load i32, i32* %3, align 4
  %49 = add nsw i32 %48, 1
  store i32 %49, i32* %3, align 4
  br label %30

50:                                               ; preds = %30
  %51 = load i32, i32* %5, align 4
  %52 = add nsw i32 %51, 3
  %53 = zext i32 %52 to i64
  %54 = alloca i32, i64 %53, align 16
  store i64 %53, i64* %9, align 8
  %55 = getelementptr inbounds i32, i32* %54, i64 0
  store i32 1, i32* %55, align 16
  %56 = getelementptr inbounds i32, i32* %54, i64 1
  store i32 1, i32* %56, align 4
  store i32 0, i32* %3, align 4
  br label %57

57:                                               ; preds = %76, %50
  %58 = load i32, i32* %3, align 4
  %59 = load i32, i32* %5, align 4
  %60 = icmp slt i32 %58, %59
  br i1 %60, label %61, label %79

61:                                               ; preds = %57
  %62 = load i32, i32* %3, align 4
  %63 = sext i32 %62 to i64
  %64 = getelementptr inbounds i32, i32* %54, i64 %63
  %65 = load i32, i32* %64, align 4
  %66 = load i32, i32* %3, align 4
  %67 = add nsw i32 %66, 1
  %68 = sext i32 %67 to i64
  %69 = getelementptr inbounds i32, i32* %54, i64 %68
  %70 = load i32, i32* %69, align 4
  %71 = add nsw i32 %65, %70
  %72 = load i32, i32* %3, align 4
  %73 = add nsw i32 %72, 2
  %74 = sext i32 %73 to i64
  %75 = getelementptr inbounds i32, i32* %54, i64 %74
  store i32 %71, i32* %75, align 4
  br label %76

76:                                               ; preds = %61
  %77 = load i32, i32* %3, align 4
  %78 = add nsw i32 %77, 1
  store i32 %78, i32* %3, align 4
  br label %57

79:                                               ; preds = %57
  store i32 0, i32* %3, align 4
  br label %80

80:                                               ; preds = %94, %79
  %81 = load i32, i32* %3, align 4
  %82 = load i32, i32* %2, align 4
  %83 = icmp slt i32 %81, %82
  br i1 %83, label %84, label %97

84:                                               ; preds = %80
  %85 = load i32, i32* %3, align 4
  %86 = sext i32 %85 to i64
  %87 = getelementptr inbounds i32, i32* %14, i64 %86
  %88 = load i32, i32* %87, align 4
  %89 = sub nsw i32 %88, 1
  %90 = sext i32 %89 to i64
  %91 = getelementptr inbounds i32, i32* %54, i64 %90
  %92 = load i32, i32* %91, align 4
  %93 = call i32 (i8*, ...) @printf(i8* getelementptr inbounds ([4 x i8], [4 x i8]* @.str.1, i64 0, i64 0), i32 %92)
  br label %94

94:                                               ; preds = %84
  %95 = load i32, i32* %3, align 4
  %96 = add nsw i32 %95, 1
  store i32 %96, i32* %3, align 4
  br label %80

97:                                               ; preds = %80
  store i32 0, i32* %1, align 4
  %98 = load i8*, i8** %7, align 8
  call void @llvm.stackrestore(i8* %98)
  %99 = load i32, i32* %1, align 4
  ret i32 %99
}

declare dso_local i32 @__isoc99_scanf(i8*, ...) #1

; Function Attrs: nounwind
declare i8* @llvm.stacksave() #2

declare dso_local i32 @printf(i8*, ...) #1

; Function Attrs: nounwind
declare void @llvm.stackrestore(i8*) #2


!llvm.module.flags = !{!0}
!llvm.ident = !{!1}

!0 = !{i32 1, !"wchar_size", i32 4}
!1 = !{!"clang version 10.0.0-4ubuntu1 "}
